; Function Attrs: nounwind uwtable
define void @duckdb_je_hook_invoke_expand(i32 noundef %0, ptr noundef %1, i64 noundef %2, i64 noundef %3, i64 noundef %4, ptr noundef %5) local_unnamed_addr #0 {
atomic_load_u.exit:
  %6 = alloca [5 x i64], align 16
  %7 = load atomic i32, ptr @nhooks.0 monotonic, align 4
  %8 = icmp eq i32 %7, 0
  br i1 %8, label %31, label %9, !prof !16

9:                                                ; preds = %atomic_load_u.exit
  %10 = tail call fastcc ptr @hook_reentrantp()
  %11 = load i8, ptr %10, align 1, !tbaa !17, !range !19, !noundef !20
  %12 = trunc nuw i8 %11 to i1
  br i1 %12, label %31, label %13

13:                                               ; preds = %9
  store i8 1, ptr %10, align 1, !tbaa !17
  %.sroa.3.0..sroa_idx = getelementptr inbounds nuw i8, ptr %6, i64 16
  %.sroa.4.0..sroa_idx = getelementptr inbounds nuw i8, ptr %6, i64 24
  %.sroa.5.0..sroa_idx = getelementptr inbounds nuw i8, ptr %6, i64 32
  br label %15

14:                                               ; preds = %30
  store i8 0, ptr %10, align 1, !tbaa !17
  br label %31

15:                                               ; preds = %13, %30
  %indvars.iv = phi i64 [ 0, %13 ], [ %indvars.iv.next, %30 ]
  %16 = getelementptr inbounds nuw [4 x %struct.seq_hooks_t], ptr @hooks, i64 0, i64 %indvars.iv
  call void @llvm.lifetime.start.p0(i64 40, ptr nonnull %6) #6
  %17 = load atomic i64, ptr %16 acquire, align 16
  %18 = and i64 %17, 1
  %.not.i = icmp eq i64 %18, 0
  br i1 %.not.i, label %.preheader.i, label %seq_try_load_hooks.exit.thread

.preheader.i:                                     ; preds = %15
  %19 = getelementptr inbounds nuw i8, ptr %16, i64 8
  br label %22

20:                                               ; preds = %22
  fence acquire
  %21 = load atomic i64, ptr %16 monotonic, align 16
  %.not12.i = icmp eq i64 %17, %21
  br i1 %.not12.i, label %27, label %seq_try_load_hooks.exit.thread

22:                                               ; preds = %22, %.preheader.i
  %.01113.i = phi i64 [ 0, %.preheader.i ], [ %26, %22 ]
  %23 = getelementptr inbounds nuw [5 x %struct.atomic_zu_t], ptr %19, i64 0, i64 %.01113.i
  %24 = load atomic i64, ptr %23 monotonic, align 8
  %25 = getelementptr inbounds nuw [5 x i64], ptr %6, i64 0, i64 %.01113.i
  store i64 %24, ptr %25, align 8, !tbaa !15
  %26 = add nuw nsw i64 %.01113.i, 1
  %exitcond.not.i = icmp eq i64 %26, 5
  br i1 %exitcond.not.i, label %20, label %22

seq_try_load_hooks.exit.thread:                   ; preds = %15, %20
  call void @llvm.lifetime.end.p0(i64 40, ptr nonnull %6) #6
  br label %30

27:                                               ; preds = %20
  %.sroa.3.0.copyload = load ptr, ptr %.sroa.3.0..sroa_idx, align 16
  %.sroa.4.0.copyload = load ptr, ptr %.sroa.4.0..sroa_idx, align 8
  %.sroa.5.0.copyload = load i8, ptr %.sroa.5.0..sroa_idx, align 16
  call void @llvm.lifetime.end.p0(i64 40, ptr nonnull %6) #6
  %28 = trunc nuw i8 %.sroa.5.0.copyload to i1
  %.not = icmp ne ptr %.sroa.3.0.copyload, null
  %or.cond.not = select i1 %28, i1 %.not, i1 false
  br i1 %or.cond.not, label %29, label %30

29:                                               ; preds = %27
  tail call void %.sroa.3.0.copyload(ptr noundef %.sroa.4.0.copyload, i32 noundef %0, ptr noundef %1, i64 noundef %2, i64 noundef %3, i64 noundef %4, ptr noundef %5) #6
  br label %30

30:                                               ; preds = %seq_try_load_hooks.exit.thread, %29, %27
  %indvars.iv.next = add nuw nsw i64 %indvars.iv, 1
  %exitcond.not = icmp eq i64 %indvars.iv.next, 4
  br i1 %exitcond.not, label %14, label %15

31:                                               ; preds = %14, %9, %atomic_load_u.exit
  ret void
}